target datalayout = "e-m:e-p270:32:32-p271:32:32-p272:64:64-i64:64-i128:128-f80:128-n8:16:32:64-S128"
target triple = "x86_64-pc-linux-gnu"

%"class.absl::profiling_internal::(anonymous namespace)::MockPeriodicSampler" = type { %"class.absl::profiling_internal::PeriodicSamplerBase", %"class.testing::internal::FunctionMocker", %"class.testing::internal::FunctionMocker.19" }
%"class.absl::profiling_internal::PeriodicSamplerBase" = type { ptr, i64, %"class.absl::profiling_internal::ExponentialBiased" }
%"class.absl::profiling_internal::ExponentialBiased" = type <{ i64, double, i8, [7 x i8] }>
%"class.testing::internal::FunctionMocker" = type { %"class.testing::internal::UntypedFunctionMockerBase" }
%"class.testing::internal::UntypedFunctionMockerBase" = type { ptr, ptr, ptr, %"class.std::vector", %"class.std::vector.14" }
%"class.std::vector" = type { %"struct.std::_Vector_base" }
%"struct.std::_Vector_base" = type { %"struct.std::_Vector_base<const void *, std::allocator<const void *>>::_Vector_impl" }
%"struct.std::_Vector_base<const void *, std::allocator<const void *>>::_Vector_impl" = type { %"struct.std::_Vector_base<const void *, std::allocator<const void *>>::_Vector_impl_data" }
%"struct.std::_Vector_base<const void *, std::allocator<const void *>>::_Vector_impl_data" = type { ptr, ptr, ptr }
%"class.std::vector.14" = type { %"struct.std::_Vector_base.15" }
%"struct.std::_Vector_base.15" = type { %"struct.std::_Vector_base<std::shared_ptr<testing::internal::ExpectationBase>, std::allocator<std::shared_ptr<testing::internal::ExpectationBase>>>::_Vector_impl" }
%"struct.std::_Vector_base<std::shared_ptr<testing::internal::ExpectationBase>, std::allocator<std::shared_ptr<testing::internal::ExpectationBase>>>::_Vector_impl" = type { %"struct.std::_Vector_base<std::shared_ptr<testing::internal::ExpectationBase>, std::allocator<std::shared_ptr<testing::internal::ExpectationBase>>>::_Vector_impl_data" }
%"struct.std::_Vector_base<std::shared_ptr<testing::internal::ExpectationBase>, std::allocator<std::shared_ptr<testing::internal::ExpectationBase>>>::_Vector_impl_data" = type { ptr, ptr, ptr }
%"class.testing::internal::FunctionMocker.19" = type { %"class.testing::internal::UntypedFunctionMockerBase" }

; Function Attrs: mustprogress nounwind uwtable
define internal void @_ZN7testing8internal14StrictMockImplIN4absl18profiling_internal12_GLOBAL__N_119MockPeriodicSamplerEED2Ev(ptr noundef nonnull align 1 dereferenceable(1) %0) unnamed_addr #5 align 2 personality ptr @__gxx_personality_v0 {
  %2 = alloca ptr, align 8
  store ptr %0, ptr %2, align 8, !tbaa !146
  %3 = load ptr, ptr %2, align 8
  %4 = ptrtoint ptr %3 to i64
  invoke void @_ZN7testing4Mock22UnregisterCallReactionEm(i64 noundef %4)
          to label %5 unwind label %6

5:                                                ; preds = %1
  ret void

6:                                                ; preds = %1
  %7 = landingpad { ptr, i32 }
          catch ptr null
  %8 = extractvalue { ptr, i32 } %7, 0
  call void @__clang_call_terminate(ptr %8) #28
  unreachable
}

; Function Attrs: mustprogress nounwind uwtable
define internal void @_ZN4absl18profiling_internal12_GLOBAL__N_119MockPeriodicSamplerD2Ev(ptr noundef nonnull align 8 dereferenceable(184) %0) unnamed_addr #5 align 2 {
  %2 = alloca ptr, align 8
  store ptr %0, ptr %2, align 8, !tbaa !66
  %3 = load ptr, ptr %2, align 8
  store ptr getelementptr inbounds inrange(-16, 32) ({ [6 x ptr] }, ptr @_ZTVN4absl18profiling_internal12_GLOBAL__N_119MockPeriodicSamplerE, i32 0, i32 0, i32 2), ptr %3, align 8, !tbaa !27
  %4 = getelementptr inbounds nuw %"class.absl::profiling_internal::(anonymous namespace)::MockPeriodicSampler", ptr %3, i32 0, i32 2
  call void @_ZN7testing8internal14FunctionMockerIFliEED2Ev(ptr noundef nonnull align 8 dereferenceable(72) %4) #3
  %5 = getelementptr inbounds nuw %"class.absl::profiling_internal::(anonymous namespace)::MockPeriodicSampler", ptr %3, i32 0, i32 1
  call void @_ZN7testing8internal14FunctionMockerIFivEED2Ev(ptr noundef nonnull align 8 dereferenceable(72) %5) #3
  ret void
}

; Function Attrs: inlinehint mustprogress nounwind uwtable
define internal void @_ZN7testing10StrictMockIN4absl18profiling_internal12_GLOBAL__N_119MockPeriodicSamplerEED2Ev(ptr noundef nonnull align 8 dereferenceable(184) %0) unnamed_addr #10 align 2 {
  %2 = alloca ptr, align 8
  store ptr %0, ptr %2, align 8, !tbaa !64
  %3 = load ptr, ptr %2, align 8
  call void @_ZN4absl18profiling_internal12_GLOBAL__N_119MockPeriodicSamplerD2Ev(ptr noundef nonnull align 8 dereferenceable(184) %3) #3
  call void @_ZN7testing8internal14StrictMockImplIN4absl18profiling_internal12_GLOBAL__N_119MockPeriodicSamplerEED2Ev(ptr noundef nonnull align 1 dereferenceable(1) %3) #3
  ret void
}

; Function Attrs: inlinehint mustprogress nounwind uwtable
define internal void @_ZN7testing10StrictMockIN4absl18profiling_internal12_GLOBAL__N_119MockPeriodicSamplerEED0Ev(ptr noundef nonnull align 8 dereferenceable(184) %0) unnamed_addr #10 align 2 {
  %2 = alloca ptr, align 8
  store ptr %0, ptr %2, align 8, !tbaa !64
  %3 = load ptr, ptr %2, align 8
  call void @_ZN7testing10StrictMockIN4absl18profiling_internal12_GLOBAL__N_119MockPeriodicSamplerEED2Ev(ptr noundef nonnull align 8 dereferenceable(184) %3) #3
  call void @_ZdlPvm(ptr noundef %3, i64 noundef 184) #26
  ret void
}