; Function Attrs: inlinehint mustprogress nounwind uwtable
define internal void @_ZN7testing10StrictMockIN4absl18profiling_internal12_GLOBAL__N_119MockPeriodicSamplerEED0Ev(ptr noundef nonnull align 8 dereferenceable(184) initializes((0, 8)) %0) unnamed_addr #10 align 2 personality ptr @__gxx_personality_v0 {
  store ptr getelementptr inbounds nuw inrange(-16, 32) (i8, ptr @_ZTVN4absl18profiling_internal12_GLOBAL__N_119MockPeriodicSamplerE, i64 16), ptr %0, align 8, !tbaa !4
  %2 = getelementptr inbounds nuw i8, ptr %0, i64 112
  tail call void @_ZN7testing8internal14FunctionMockerIFliEED2Ev(ptr noundef nonnull align 8 dereferenceable(72) %2) #26
  %3 = getelementptr inbounds nuw i8, ptr %0, i64 40
  tail call void @_ZN7testing8internal14FunctionMockerIFivEED2Ev(ptr noundef nonnull align 8 dereferenceable(72) %3) #26
  %4 = ptrtoint ptr %0 to i64
  invoke void @_ZN7testing4Mock22UnregisterCallReactionEm(i64 noundef %4)
          to label %_ZN7testing10StrictMockIN4absl18profiling_internal12_GLOBAL__N_119MockPeriodicSamplerEED2Ev.exit unwind label %5

5:                                                ; preds = %1
  %6 = landingpad { ptr, i32 }
          catch ptr null
  %7 = extractvalue { ptr, i32 } %6, 0
  tail call void @__clang_call_terminate(ptr %7) #27
  unreachable

_ZN7testing10StrictMockIN4absl18profiling_internal12_GLOBAL__N_119MockPeriodicSamplerEED2Ev.exit: ; preds = %1
  tail call void @_ZdlPvm(ptr noundef nonnull %0, i64 noundef 184) #28
  ret void
}